target datalayout = "e-m:e-p270:32:32-p271:32:32-p272:64:64-i64:64-i128:128-f80:128-n8:16:32:64-S128"
target triple = "x86_64-pc-linux-gnu"

%"class.std::__shared_count" = type { ptr }
%class.SeamEdge = type { %"class.vcg::Edge", ptr, ptr, i32, i32 }
%"class.vcg::Edge" = type { %"class.vcg::EdgeArityMax" }
%"class.vcg::EdgeArityMax" = type { %"class.vcg::Arity10" }
%"class.vcg::Arity10" = type { %"class.vcg::DefaultDeriver" }
%"class.vcg::DefaultDeriver" = type { %"class.vcg::Arity9" }
%"class.vcg::Arity9" = type { %"class.vcg::DefaultDeriver.50" }
%"class.vcg::DefaultDeriver.50" = type { %"class.vcg::Arity8" }
%"class.vcg::Arity8" = type { %"class.vcg::DefaultDeriver.51" }
%"class.vcg::DefaultDeriver.51" = type { %"class.vcg::Arity7" }
%"class.vcg::Arity7" = type { %"class.vcg::DefaultDeriver.52" }
%"class.vcg::DefaultDeriver.52" = type { %"class.vcg::Arity6" }
%"class.vcg::Arity6" = type { %"class.vcg::DefaultDeriver.53" }
%"class.vcg::DefaultDeriver.53" = type { %"class.vcg::Arity5" }
%"class.vcg::Arity5" = type { %"class.vcg::edge::BitFlags" }
%"class.vcg::edge::BitFlags" = type { %"class.vcg::Arity4.base", i32 }
%"class.vcg::Arity4.base" = type { %"class.vcg::edge::Color4b.base" }
%"class.vcg::edge::Color4b.base" = type { %"class.vcg::edge::Color.base" }
%"class.vcg::edge::Color.base" = type <{ %"class.vcg::Arity3", %"class.vcg::Color4" }>
%"class.vcg::Arity3" = type { %"class.vcg::edge::EEAdj" }
%"class.vcg::edge::EEAdj" = type { %"class.vcg::Arity2", [2 x ptr], [2 x i32] }
%"class.vcg::Arity2" = type { %"class.vcg::edge::VEAdj" }
%"class.vcg::edge::VEAdj" = type { %"class.vcg::Arity1", [2 x ptr], [2 x i32] }
%"class.vcg::Arity1" = type { %"class.vcg::edge::VertexRef" }
%"class.vcg::edge::VertexRef" = type { [2 x ptr] }
%"class.vcg::Color4" = type { %"class.vcg::Point4" }
%"class.vcg::Point4" = type { [4 x i8] }
%"class.vcg::tri::TriMesh" = type { ptr, %"class.std::vector.15", i32, %"class.std::vector.20", i32, %"class.std::vector.25", i32, %"class.std::vector.30", i32, %"class.std::vector.35", i32, %"class.vcg::Box3", %"class.std::vector.40", %"class.std::vector.40", i32, %"class.std::set", %"class.std::set", %"class.std::set", %"class.std::set", %"class.std::set", %"class.vcg::Shot", %"class.vcg::Color4", i32 }
%"class.std::vector.15" = type { %"struct.std::_Vector_base.16" }
%"struct.std::_Vector_base.16" = type { %"struct.std::_Vector_base<SeamVertex, std::allocator<SeamVertex>>::_Vector_impl" }
%"struct.std::_Vector_base<SeamVertex, std::allocator<SeamVertex>>::_Vector_impl" = type { %"struct.std::_Vector_base<SeamVertex, std::allocator<SeamVertex>>::_Vector_impl_data" }
%"struct.std::_Vector_base<SeamVertex, std::allocator<SeamVertex>>::_Vector_impl_data" = type { ptr, ptr, ptr }
%"class.std::vector.20" = type { %"struct.std::_Vector_base.21" }
%"struct.std::_Vector_base.21" = type { %"struct.std::_Vector_base<SeamEdge, std::allocator<SeamEdge>>::_Vector_impl" }
%"struct.std::_Vector_base<SeamEdge, std::allocator<SeamEdge>>::_Vector_impl" = type { %"struct.std::_Vector_base<SeamEdge, std::allocator<SeamEdge>>::_Vector_impl_data" }
%"struct.std::_Vector_base<SeamEdge, std::allocator<SeamEdge>>::_Vector_impl_data" = type { ptr, ptr, ptr }
%"class.std::vector.25" = type { %"struct.std::_Vector_base.26" }
%"struct.std::_Vector_base.26" = type { %"struct.std::_Vector_base<vcg::Face<vcg::UsedTypes<vcg::Use<SeamVertex>::AsVertexType, vcg::Use<SeamEdge>::AsEdgeType>>, std::allocator<vcg::Face<vcg::UsedTypes<vcg::Use<SeamVertex>::AsVertexType, vcg::Use<SeamEdge>::AsEdgeType>>>>::_Vector_impl" }
%"struct.std::_Vector_base<vcg::Face<vcg::UsedTypes<vcg::Use<SeamVertex>::AsVertexType, vcg::Use<SeamEdge>::AsEdgeType>>, std::allocator<vcg::Face<vcg::UsedTypes<vcg::Use<SeamVertex>::AsVertexType, vcg::Use<SeamEdge>::AsEdgeType>>>>::_Vector_impl" = type { %"struct.std::_Vector_base<vcg::Face<vcg::UsedTypes<vcg::Use<SeamVertex>::AsVertexType, vcg::Use<SeamEdge>::AsEdgeType>>, std::allocator<vcg::Face<vcg::UsedTypes<vcg::Use<SeamVertex>::AsVertexType, vcg::Use<SeamEdge>::AsEdgeType>>>>::_Vector_impl_data" }
%"struct.std::_Vector_base<vcg::Face<vcg::UsedTypes<vcg::Use<SeamVertex>::AsVertexType, vcg::Use<SeamEdge>::AsEdgeType>>, std::allocator<vcg::Face<vcg::UsedTypes<vcg::Use<SeamVertex>::AsVertexType, vcg::Use<SeamEdge>::AsEdgeType>>>>::_Vector_impl_data" = type { ptr, ptr, ptr }
%"class.std::vector.30" = type { %"struct.std::_Vector_base.31" }
%"struct.std::_Vector_base.31" = type { %"struct.std::_Vector_base<vcg::HEdge<vcg::UsedTypes<vcg::Use<SeamVertex>::AsVertexType, vcg::Use<SeamEdge>::AsEdgeType>>, std::allocator<vcg::HEdge<vcg::UsedTypes<vcg::Use<SeamVertex>::AsVertexType, vcg::Use<SeamEdge>::AsEdgeType>>>>::_Vector_impl" }
%"struct.std::_Vector_base<vcg::HEdge<vcg::UsedTypes<vcg::Use<SeamVertex>::AsVertexType, vcg::Use<SeamEdge>::AsEdgeType>>, std::allocator<vcg::HEdge<vcg::UsedTypes<vcg::Use<SeamVertex>::AsVertexType, vcg::Use<SeamEdge>::AsEdgeType>>>>::_Vector_impl" = type { %"struct.std::_Vector_base<vcg::HEdge<vcg::UsedTypes<vcg::Use<SeamVertex>::AsVertexType, vcg::Use<SeamEdge>::AsEdgeType>>, std::allocator<vcg::HEdge<vcg::UsedTypes<vcg::Use<SeamVertex>::AsVertexType, vcg::Use<SeamEdge>::AsEdgeType>>>>::_Vector_impl_data" }
%"struct.std::_Vector_base<vcg::HEdge<vcg::UsedTypes<vcg::Use<SeamVertex>::AsVertexType, vcg::Use<SeamEdge>::AsEdgeType>>, std::allocator<vcg::HEdge<vcg::UsedTypes<vcg::Use<SeamVertex>::AsVertexType, vcg::Use<SeamEdge>::AsEdgeType>>>>::_Vector_impl_data" = type { ptr, ptr, ptr }
%"class.std::vector.35" = type { %"struct.std::_Vector_base.36" }
%"struct.std::_Vector_base.36" = type { %"struct.std::_Vector_base<vcg::TetraSimp<vcg::UsedTypes<vcg::Use<SeamVertex>::AsVertexType, vcg::Use<SeamEdge>::AsEdgeType>>, std::allocator<vcg::TetraSimp<vcg::UsedTypes<vcg::Use<SeamVertex>::AsVertexType, vcg::Use<SeamEdge>::AsEdgeType>>>>::_Vector_impl" }
%"struct.std::_Vector_base<vcg::TetraSimp<vcg::UsedTypes<vcg::Use<SeamVertex>::AsVertexType, vcg::Use<SeamEdge>::AsEdgeType>>, std::allocator<vcg::TetraSimp<vcg::UsedTypes<vcg::Use<SeamVertex>::AsVertexType, vcg::Use<SeamEdge>::AsEdgeType>>>>::_Vector_impl" = type { %"struct.std::_Vector_base<vcg::TetraSimp<vcg::UsedTypes<vcg::Use<SeamVertex>::AsVertexType, vcg::Use<SeamEdge>::AsEdgeType>>, std::allocator<vcg::TetraSimp<vcg::UsedTypes<vcg::Use<SeamVertex>::AsVertexType, vcg::Use<SeamEdge>::AsEdgeType>>>>::_Vector_impl_data" }
%"struct.std::_Vector_base<vcg::TetraSimp<vcg::UsedTypes<vcg::Use<SeamVertex>::AsVertexType, vcg::Use<SeamEdge>::AsEdgeType>>, std::allocator<vcg::TetraSimp<vcg::UsedTypes<vcg::Use<SeamVertex>::AsVertexType, vcg::Use<SeamEdge>::AsEdgeType>>>>::_Vector_impl_data" = type { ptr, ptr, ptr }
%"class.vcg::Box3" = type { %"class.vcg::Point3", %"class.vcg::Point3" }
%"class.vcg::Point3" = type { [3 x double] }
%"class.std::vector.40" = type { %"struct.std::_Vector_base.41" }
%"struct.std::_Vector_base.41" = type { %"struct.std::_Vector_base<std::__cxx11::basic_string<char>, std::allocator<std::__cxx11::basic_string<char>>>::_Vector_impl" }
%"struct.std::_Vector_base<std::__cxx11::basic_string<char>, std::allocator<std::__cxx11::basic_string<char>>>::_Vector_impl" = type { %"struct.std::_Vector_base<std::__cxx11::basic_string<char>, std::allocator<std::__cxx11::basic_string<char>>>::_Vector_impl_data" }
%"struct.std::_Vector_base<std::__cxx11::basic_string<char>, std::allocator<std::__cxx11::basic_string<char>>>::_Vector_impl_data" = type { ptr, ptr, ptr }
%"class.std::set" = type { %"class.std::_Rb_tree" }
%"class.std::_Rb_tree" = type { %"struct.std::_Rb_tree<vcg::PointerToAttribute, vcg::PointerToAttribute, std::_Identity<vcg::PointerToAttribute>, std::less<vcg::PointerToAttribute>>::_Rb_tree_impl" }
%"struct.std::_Rb_tree<vcg::PointerToAttribute, vcg::PointerToAttribute, std::_Identity<vcg::PointerToAttribute>, std::less<vcg::PointerToAttribute>>::_Rb_tree_impl" = type { %"struct.std::_Rb_tree_key_compare", %"struct.std::_Rb_tree_header" }
%"struct.std::_Rb_tree_key_compare" = type { %"struct.std::less" }
%"struct.std::less" = type { i8 }
%"struct.std::_Rb_tree_header" = type { %"struct.std::_Rb_tree_node_base", i64 }
%"struct.std::_Rb_tree_node_base" = type { i32, ptr, ptr, ptr }
%"class.vcg::Shot" = type { %"class.vcg::Camera", %"class.vcg::Shot<double>::ReferenceFrame" }
%"class.vcg::Camera" = type <{ double, %"class.vcg::Point2", %"class.vcg::Point2.48", %"class.vcg::Point2.48", %"class.vcg::Point2.48", %"struct.std::array", i32, [4 x i8] }>
%"class.vcg::Point2" = type { [2 x i32] }
%"class.vcg::Point2.48" = type { [2 x double] }
%"struct.std::array" = type { [4 x double] }
%"class.vcg::Shot<double>::ReferenceFrame" = type { %"class.vcg::Matrix44", %"class.vcg::Point3" }
%"class.vcg::Matrix44" = type { %"struct.std::array.49" }
%"struct.std::array.49" = type { [16 x double] }
%struct.Seam = type { ptr, %"class.std::vector.70", %"class.std::vector.70" }
%"class.std::vector.70" = type { %"struct.std::_Vector_base.71" }
%"struct.std::_Vector_base.71" = type { %"struct.std::_Vector_base<int, std::allocator<int>>::_Vector_impl" }
%"struct.std::_Vector_base<int, std::allocator<int>>::_Vector_impl" = type { %"struct.std::_Vector_base<int, std::allocator<int>>::_Vector_impl_data" }
%"struct.std::_Vector_base<int, std::allocator<int>>::_Vector_impl_data" = type { ptr, ptr, ptr }
%"class.vcg::Arity7.93" = type { %"class.vcg::face::Normal3d" }
%"class.vcg::face::Normal3d" = type { %"class.vcg::face::NormalAbs" }
%"class.vcg::face::NormalAbs" = type { %"class.vcg::Arity6.94", %"class.vcg::Point3" }
%"class.vcg::Arity6.94" = type { %"class.vcg::face::WedgeTexCoord2d" }
%"class.vcg::face::WedgeTexCoord2d" = type { %"class.vcg::face::WedgeTexCoord" }
%"class.vcg::face::WedgeTexCoord" = type { %"class.vcg::Arity5.95", [3 x %"class.vcg::TexCoord2"] }
%"class.vcg::Arity5.95" = type { %"class.vcg::face::Mark" }
%"class.vcg::face::Mark" = type { %"class.vcg::Arity4.base.119", i32 }
%"class.vcg::Arity4.base.119" = type { %"class.vcg::face::VFAdj.base" }
%"class.vcg::face::VFAdj.base" = type <{ %"class.vcg::Arity3.base", [5 x i8], [3 x ptr], [3 x i8] }>
%"class.vcg::Arity3.base" = type { %"class.vcg::face::FFAdj.base" }
%"class.vcg::face::FFAdj.base" = type <{ %"class.vcg::Arity2.98", [3 x ptr], [3 x i8] }>
%"class.vcg::Arity2.98" = type { %"class.vcg::face::VertexRef" }
%"class.vcg::face::VertexRef" = type { %"class.vcg::Arity1.99", [3 x ptr] }
%"class.vcg::Arity1.99" = type { %class.FaceQualifier }
%class.FaceQualifier = type { i8 }
%"class.vcg::TexCoord2" = type <{ [1 x %"class.vcg::Point2.48"], [1 x i16], [6 x i8] }>
%"class.std::__shared_ptr.76" = type { ptr, %"class.std::__shared_count" }
%"class.__gnu_cxx::__normal_iterator.154" = type { ptr }
%"class.vcg::face::Color" = type <{ %"class.vcg::Arity7.93", %"class.vcg::Color4", [4 x i8] }>

; Function Attrs: mustprogress nounwind uwtable
define linkonce_odr noundef ptr @_ZNKSt12__shared_ptrI4SeamLN9__gnu_cxx12_Lock_policyE2EE3getEv(ptr noundef nonnull align 8 dereferenceable(16) %0) #4 comdat align 2 {
  %2 = alloca ptr, align 8
  store ptr %0, ptr %2, align 8
  %3 = load ptr, ptr %2, align 8
  %4 = getelementptr inbounds %"class.std::__shared_ptr.76", ptr %3, i32 0, i32 0
  %5 = load ptr, ptr %4, align 8
  ret ptr %5
}

; Function Attrs: mustprogress nounwind uwtable
define linkonce_odr noundef nonnull align 8 dereferenceable(8) ptr @_ZNK9__gnu_cxx17__normal_iteratorIPiSt6vectorIiSaIiEEE4baseEv(ptr noundef nonnull align 8 dereferenceable(8) %0) #4 comdat align 2 {
  %2 = alloca ptr, align 8
  store ptr %0, ptr %2, align 8
  %3 = load ptr, ptr %2, align 8
  %4 = getelementptr inbounds %"class.__gnu_cxx::__normal_iterator.154", ptr %3, i32 0, i32 0
  ret ptr %4
}

; Function Attrs: mustprogress nounwind uwtable
define linkonce_odr void @_ZN9__gnu_cxx17__normal_iteratorIPiSt6vectorIiSaIiEEEC2ERKS1_(ptr noundef nonnull align 8 dereferenceable(8) %0, ptr noundef nonnull align 8 dereferenceable(8) %1) unnamed_addr #4 comdat align 2 {
  %3 = alloca ptr, align 8
  %4 = alloca ptr, align 8
  store ptr %0, ptr %3, align 8
  store ptr %1, ptr %4, align 8
  %5 = load ptr, ptr %3, align 8
  %6 = getelementptr inbounds %"class.__gnu_cxx::__normal_iterator.154", ptr %5, i32 0, i32 0
  %7 = load ptr, ptr %4, align 8
  %8 = load ptr, ptr %7, align 8
  store ptr %8, ptr %6, align 8
  ret void
}

; Function Attrs: mustprogress nounwind uwtable
define linkonce_odr noundef ptr @_ZNKSt19__shared_ptr_accessI4SeamLN9__gnu_cxx12_Lock_policyE2ELb0ELb0EE6_M_getEv(ptr noundef nonnull align 1 dereferenceable(1) %0) #4 comdat align 2 {
  %2 = alloca ptr, align 8
  store ptr %0, ptr %2, align 8
  %3 = load ptr, ptr %2, align 8
  %4 = call noundef ptr @_ZNKSt12__shared_ptrI4SeamLN9__gnu_cxx12_Lock_policyE2EE3getEv(ptr noundef nonnull align 8 dereferenceable(16) %3) #3
  ret ptr %4
}

; Function Attrs: mustprogress nounwind uwtable
define linkonce_odr noundef nonnull align 8 dereferenceable(8) ptr @_ZN9__gnu_cxx17__normal_iteratorIPiSt6vectorIiSaIiEEEppEv(ptr noundef nonnull align 8 dereferenceable(8) %0) #4 comdat align 2 {
  %2 = alloca ptr, align 8
  store ptr %0, ptr %2, align 8
  %3 = load ptr, ptr %2, align 8
  %4 = getelementptr inbounds %"class.__gnu_cxx::__normal_iterator.154", ptr %3, i32 0, i32 0
  %5 = load ptr, ptr %4, align 8
  %6 = getelementptr inbounds i32, ptr %5, i32 1
  store ptr %6, ptr %4, align 8
  ret ptr %3
}

; Function Attrs: mustprogress nounwind uwtable
define linkonce_odr noundef nonnull align 1 dereferenceable(4) ptr @_ZN3vcg4face5ColorINS_6Color4IhEENS_6Arity7INS_8FaceBaseI13MeshUsedTypesEE13FaceQualifierNS0_9VertexRefENS0_5FFAdjENS0_5VFAdjENS0_4MarkENS0_15WedgeTexCoord2dENS0_8Normal3dEEEE1CEv(ptr noundef nonnull align 8 dereferenceable(196) %0) #4 comdat align 2 {
  %2 = alloca ptr, align 8
  store ptr %0, ptr %2, align 8
  %3 = load ptr, ptr %2, align 8
  %4 = getelementptr inbounds %"class.vcg::face::Color", ptr %3, i32 0, i32 1
  ret ptr %4
}

; Function Attrs: mustprogress nounwind uwtable
define linkonce_odr noundef nonnull align 8 dereferenceable(96) ptr @_ZNSt6vectorI8SeamEdgeSaIS0_EEixEm(ptr noundef nonnull align 8 dereferenceable(24) %0, i64 noundef %1) #4 comdat align 2 {
  %3 = alloca ptr, align 8
  %4 = alloca i64, align 8
  store ptr %0, ptr %3, align 8
  store i64 %1, ptr %4, align 8
  %5 = load ptr, ptr %3, align 8
  %6 = getelementptr inbounds %"struct.std::_Vector_base.21", ptr %5, i32 0, i32 0
  %7 = getelementptr inbounds %"struct.std::_Vector_base<SeamEdge, std::allocator<SeamEdge>>::_Vector_impl_data", ptr %6, i32 0, i32 0
  %8 = load ptr, ptr %7, align 8
  %9 = load i64, ptr %4, align 8
  %10 = getelementptr inbounds %class.SeamEdge, ptr %8, i64 %9
  ret ptr %10
}

; Function Attrs: mustprogress nounwind uwtable
define linkonce_odr noundef nonnull align 4 dereferenceable(4) ptr @_ZNK9__gnu_cxx17__normal_iteratorIPiSt6vectorIiSaIiEEEdeEv(ptr noundef nonnull align 8 dereferenceable(8) %0) #4 comdat align 2 {
  %2 = alloca ptr, align 8
  store ptr %0, ptr %2, align 8
  %3 = load ptr, ptr %2, align 8
  %4 = getelementptr inbounds %"class.__gnu_cxx::__normal_iterator.154", ptr %3, i32 0, i32 0
  %5 = load ptr, ptr %4, align 8
  ret ptr %5
}

; Function Attrs: mustprogress nounwind uwtable
define linkonce_odr noundef zeroext i1 @_ZN9__gnu_cxxneIPiSt6vectorIiSaIiEEEEbRKNS_17__normal_iteratorIT_T0_EESA_(ptr noundef nonnull align 8 dereferenceable(8) %0, ptr noundef nonnull align 8 dereferenceable(8) %1) #4 comdat {
  %3 = alloca ptr, align 8
  %4 = alloca ptr, align 8
  store ptr %0, ptr %3, align 8
  store ptr %1, ptr %4, align 8
  %5 = load ptr, ptr %3, align 8
  %6 = call noundef nonnull align 8 dereferenceable(8) ptr @_ZNK9__gnu_cxx17__normal_iteratorIPiSt6vectorIiSaIiEEE4baseEv(ptr noundef nonnull align 8 dereferenceable(8) %5) #3
  %7 = load ptr, ptr %6, align 8
  %8 = load ptr, ptr %4, align 8
  %9 = call noundef nonnull align 8 dereferenceable(8) ptr @_ZNK9__gnu_cxx17__normal_iteratorIPiSt6vectorIiSaIiEEE4baseEv(ptr noundef nonnull align 8 dereferenceable(8) %8) #3
  %10 = load ptr, ptr %9, align 8
  %11 = icmp ne ptr %7, %10
  ret i1 %11
}

; Function Attrs: mustprogress nounwind uwtable
define linkonce_odr ptr @_ZNSt6vectorIiSaIiEE3endEv(ptr noundef nonnull align 8 dereferenceable(24) %0) #4 comdat align 2 {
  %2 = alloca %"class.__gnu_cxx::__normal_iterator.154", align 8
  %3 = alloca ptr, align 8
  store ptr %0, ptr %3, align 8
  %4 = load ptr, ptr %3, align 8
  %5 = getelementptr inbounds %"struct.std::_Vector_base.71", ptr %4, i32 0, i32 0
  %6 = getelementptr inbounds %"struct.std::_Vector_base<int, std::allocator<int>>::_Vector_impl_data", ptr %5, i32 0, i32 1
  call void @_ZN9__gnu_cxx17__normal_iteratorIPiSt6vectorIiSaIiEEEC2ERKS1_(ptr noundef nonnull align 8 dereferenceable(8) %2, ptr noundef nonnull align 8 dereferenceable(8) %6) #3
  %7 = getelementptr inbounds %"class.__gnu_cxx::__normal_iterator.154", ptr %2, i32 0, i32 0
  %8 = load ptr, ptr %7, align 8
  ret ptr %8
}

; Function Attrs: mustprogress nounwind uwtable
define linkonce_odr ptr @_ZNSt6vectorIiSaIiEE5beginEv(ptr noundef nonnull align 8 dereferenceable(24) %0) #4 comdat align 2 {
  %2 = alloca %"class.__gnu_cxx::__normal_iterator.154", align 8
  %3 = alloca ptr, align 8
  store ptr %0, ptr %3, align 8
  %4 = load ptr, ptr %3, align 8
  %5 = getelementptr inbounds %"struct.std::_Vector_base.71", ptr %4, i32 0, i32 0
  %6 = getelementptr inbounds %"struct.std::_Vector_base<int, std::allocator<int>>::_Vector_impl_data", ptr %5, i32 0, i32 0
  call void @_ZN9__gnu_cxx17__normal_iteratorIPiSt6vectorIiSaIiEEEC2ERKS1_(ptr noundef nonnull align 8 dereferenceable(8) %2, ptr noundef nonnull align 8 dereferenceable(8) %6) #3
  %7 = getelementptr inbounds %"class.__gnu_cxx::__normal_iterator.154", ptr %2, i32 0, i32 0
  %8 = load ptr, ptr %7, align 8
  ret ptr %8
}

; Function Attrs: mustprogress nounwind uwtable
define linkonce_odr noundef ptr @_ZNKSt19__shared_ptr_accessI4SeamLN9__gnu_cxx12_Lock_policyE2ELb0ELb0EEptEv(ptr noundef nonnull align 1 dereferenceable(1) %0) #4 comdat align 2 {
  %2 = alloca ptr, align 8
  store ptr %0, ptr %2, align 8
  %3 = load ptr, ptr %2, align 8
  %4 = call noundef ptr @_ZNKSt19__shared_ptr_accessI4SeamLN9__gnu_cxx12_Lock_policyE2ELb0ELb0EE6_M_getEv(ptr noundef nonnull align 1 dereferenceable(1) %3) #3
  ret ptr %4
}

; Function Attrs: mustprogress uwtable
define void @_Z12ColorizeSeamSt10shared_ptrI4SeamERKN3vcg6Color4IhEE(ptr noundef %0, ptr noundef nonnull align 1 dereferenceable(4) %1) #5 {
  %3 = alloca ptr, align 8
  %4 = alloca ptr, align 8
  %5 = alloca ptr, align 8
  %6 = alloca ptr, align 8
  %7 = alloca %"class.__gnu_cxx::__normal_iterator.154", align 8
  %8 = alloca %"class.__gnu_cxx::__normal_iterator.154", align 8
  %9 = alloca i32, align 4
  store ptr %0, ptr %3, align 8
  store ptr %1, ptr %4, align 8
  %10 = call noundef ptr @_ZNKSt19__shared_ptr_accessI4SeamLN9__gnu_cxx12_Lock_policyE2ELb0ELb0EEptEv(ptr noundef nonnull align 1 dereferenceable(1) %0) #3
  %11 = getelementptr inbounds %struct.Seam, ptr %10, i32 0, i32 0
  %12 = load ptr, ptr %11, align 8
  store ptr %12, ptr %5, align 8
  %13 = call noundef ptr @_ZNKSt19__shared_ptr_accessI4SeamLN9__gnu_cxx12_Lock_policyE2ELb0ELb0EEptEv(ptr noundef nonnull align 1 dereferenceable(1) %0) #3
  %14 = getelementptr inbounds %struct.Seam, ptr %13, i32 0, i32 1
  store ptr %14, ptr %6, align 8
  %15 = load ptr, ptr %6, align 8
  %16 = call ptr @_ZNSt6vectorIiSaIiEE5beginEv(ptr noundef nonnull align 8 dereferenceable(24) %15) #3
  %17 = getelementptr inbounds %"class.__gnu_cxx::__normal_iterator.154", ptr %7, i32 0, i32 0
  store ptr %16, ptr %17, align 8
  %18 = load ptr, ptr %6, align 8
  %19 = call ptr @_ZNSt6vectorIiSaIiEE3endEv(ptr noundef nonnull align 8 dereferenceable(24) %18) #3
  %20 = getelementptr inbounds %"class.__gnu_cxx::__normal_iterator.154", ptr %8, i32 0, i32 0
  store ptr %19, ptr %20, align 8
  br label %21

21:                                               ; preds = %44, %2
  %22 = call noundef zeroext i1 @_ZN9__gnu_cxxneIPiSt6vectorIiSaIiEEEEbRKNS_17__normal_iteratorIT_T0_EESA_(ptr noundef nonnull align 8 dereferenceable(8) %7, ptr noundef nonnull align 8 dereferenceable(8) %8) #3
  br i1 %22, label %23, label %46

23:                                               ; preds = %21
  %24 = call noundef nonnull align 4 dereferenceable(4) ptr @_ZNK9__gnu_cxx17__normal_iteratorIPiSt6vectorIiSaIiEEEdeEv(ptr noundef nonnull align 8 dereferenceable(8) %7) #3
  %25 = load i32, ptr %24, align 4
  store i32 %25, ptr %9, align 4
  %26 = load ptr, ptr %4, align 8
  %27 = load ptr, ptr %5, align 8
  %28 = getelementptr inbounds %"class.vcg::tri::TriMesh", ptr %27, i32 0, i32 3
  %29 = load i32, ptr %9, align 4
  %30 = sext i32 %29 to i64
  %31 = call noundef nonnull align 8 dereferenceable(96) ptr @_ZNSt6vectorI8SeamEdgeSaIS0_EEixEm(ptr noundef nonnull align 8 dereferenceable(24) %28, i64 noundef %30) #3
  %32 = getelementptr inbounds %class.SeamEdge, ptr %31, i32 0, i32 1
  %33 = load ptr, ptr %32, align 8
  %34 = call noundef nonnull align 1 dereferenceable(4) ptr @_ZN3vcg4face5ColorINS_6Color4IhEENS_6Arity7INS_8FaceBaseI13MeshUsedTypesEE13FaceQualifierNS0_9VertexRefENS0_5FFAdjENS0_5VFAdjENS0_4MarkENS0_15WedgeTexCoord2dENS0_8Normal3dEEEE1CEv(ptr noundef nonnull align 8 dereferenceable(196) %33)
  call void @llvm.memcpy.p0.p0.i64(ptr align 1 %34, ptr align 1 %26, i64 4, i1 false)
  %35 = load ptr, ptr %4, align 8
  %36 = load ptr, ptr %5, align 8
  %37 = getelementptr inbounds %"class.vcg::tri::TriMesh", ptr %36, i32 0, i32 3
  %38 = load i32, ptr %9, align 4
  %39 = sext i32 %38 to i64
  %40 = call noundef nonnull align 8 dereferenceable(96) ptr @_ZNSt6vectorI8SeamEdgeSaIS0_EEixEm(ptr noundef nonnull align 8 dereferenceable(24) %37, i64 noundef %39) #3
  %41 = getelementptr inbounds %class.SeamEdge, ptr %40, i32 0, i32 2
  %42 = load ptr, ptr %41, align 8
  %43 = call noundef nonnull align 1 dereferenceable(4) ptr @_ZN3vcg4face5ColorINS_6Color4IhEENS_6Arity7INS_8FaceBaseI13MeshUsedTypesEE13FaceQualifierNS0_9VertexRefENS0_5FFAdjENS0_5VFAdjENS0_4MarkENS0_15WedgeTexCoord2dENS0_8Normal3dEEEE1CEv(ptr noundef nonnull align 8 dereferenceable(196) %42)
  call void @llvm.memcpy.p0.p0.i64(ptr align 1 %43, ptr align 1 %35, i64 4, i1 false)
  br label %44

44:                                               ; preds = %23
  %45 = call noundef nonnull align 8 dereferenceable(8) ptr @_ZN9__gnu_cxx17__normal_iteratorIPiSt6vectorIiSaIiEEEppEv(ptr noundef nonnull align 8 dereferenceable(8) %7) #3
  br label %21

46:                                               ; preds = %21
  ret void
}