; Function Attrs: mustprogress nofree norecurse nosync nounwind memory(readwrite, inaccessiblemem: none) uwtable
define void @_Z12ColorizeSeamSt10shared_ptrI4SeamERKN3vcg6Color4IhEE(ptr nocapture noundef readonly %0, ptr nocapture noundef nonnull readonly align 1 dereferenceable(4) %1) local_unnamed_addr #13 {
  %3 = load ptr, ptr %0, align 8
  %4 = getelementptr inbounds i8, ptr %3, i64 8
  %5 = load ptr, ptr %4, align 8
  %6 = getelementptr inbounds i8, ptr %3, i64 16
  %7 = load ptr, ptr %6, align 8
  %.not10 = icmp eq ptr %5, %7
  br i1 %.not10, label %._crit_edge, label %.lr.ph

.lr.ph:                                           ; preds = %2
  %8 = load ptr, ptr %3, align 8
  %9 = getelementptr inbounds i8, ptr %8, i64 40
  br label %10

10:                                               ; preds = %.lr.ph, %10
  %.sroa.07.011 = phi ptr [ %5, %.lr.ph ], [ %23, %10 ]
  %11 = load i32, ptr %.sroa.07.011, align 4
  %12 = sext i32 %11 to i64
  %13 = load ptr, ptr %9, align 8
  %14 = getelementptr inbounds %class.SeamEdge, ptr %13, i64 %12, i32 1
  %15 = load ptr, ptr %14, align 8
  %16 = getelementptr inbounds i8, ptr %15, i64 192
  %17 = load i32, ptr %1, align 1
  store i32 %17, ptr %16, align 1
  %18 = load ptr, ptr %9, align 8
  %19 = getelementptr inbounds %class.SeamEdge, ptr %18, i64 %12, i32 2
  %20 = load ptr, ptr %19, align 8
  %21 = getelementptr inbounds i8, ptr %20, i64 192
  %22 = load i32, ptr %1, align 1
  store i32 %22, ptr %21, align 1
  %23 = getelementptr inbounds i8, ptr %.sroa.07.011, i64 4
  %.not = icmp eq ptr %23, %7
  br i1 %.not, label %._crit_edge, label %10

._crit_edge:                                      ; preds = %10, %2
  ret void
}